(dp0
Vsg_bundle_data
p1
(dp2
Vtype
p3
VCustomNonProjectEntity13
p4
sVid
p5
I15
sVsg_system_name
p6
Vtk-framework-desktopserver
p7
sVsg_status_list
p8
Vdepl
p9
sVsg_deprecation_message
p10
NssVsg_version_data
p11
(dp12
Vtype
p13
VCustomNonProjectEntity09
p14
sVid
p15
I2889
sVcode
p16
Vv1.6.1
p17
sVsg_status_list
p18
Vprod
p19
sVdescription
p20
VUpdates Cryptography.
p21
sVtags
p22
(lp23
sVsg_detailed_release_notes
p24
(dp25
Vurl
p26
Vhttps://community.shotgridsoftware.com/t/a-new-version-of-tk-framework-desktopserver-has-been-released/13509/7
p27
sVname
p28
Vv1.6.1
p29
sVcontent_type
p30
NsVlink_type
p31
Vweb
p32
sg13
VAttachment
p33
sg15
I30081
ssVsg_documentation
p34
NsVsg_payload
p35
(dp36
g26
Vhttps://s3-proxy.shotgunstudio.com/d18c13bf0e59a9a82f18be518a1b6b508bcbd774/0b17f1fb5e253758f0cfa63a00db8f34bc3b9ac6/tk-framework-desktopserver_v1.6.1.zip?response-content-disposition=filename%3D%22tk-framework-desktopserver_v1.6.1.zip%22&x-amz-meta-user-id=42&x-amz-meta-user-type=ApiUser&X-Amz-Algorithm=AWS4-HMAC-SHA256&X-Amz-Credential=ASIAYJG6Z4JIZT6E3RHO%2F20231115%2Fus-west-2%2Fs3%2Faws4_request&X-Amz-Date=20231115T013612Z&X-Amz-SignedHeaders=host&X-Amz-Expires=900&X-Amz-Security-Token=IQoJb3JpZ2luX2VjECEaCXVzLWVhc3QtMSJHMEUCIQCTk8AAV%2BJ12afA%2FsN4qjRHqi6asq4mmYNMg1WoL9lwLwIgEDI9JFuR%2FaSfzxGU21phG7rWpYem1YhA8dCJa%2BNcGnMqmAIIahAAGgw1Njk1NTA0MzA4MDEiDPRdQlctqN%2Brm3sDqSr1AUf4z3spiKDt1A02NOYaKl8TmuhCA3QY4XRTnXonOkIrLIJjsVViNiznW20la4f7dSWAjjp4XK6WOow%2FAAhCuq0uz1yHYl3G2wGnsSsJyIWv0mjNgxJKhVtTp21y3OU6gd0gYlah7UQ0JFoS8soQsWeIFNFAs%2BF6bYrxnSUrcvD8oYBub11ea7TsTpyR3H2Yn7lyjQ3XTcj5Q7AttugIwZzB2B5PQmlkdCPAq%2BGiq8fDw%2F4%2B1%2BxMyB9t60HyUegqlj76LwwiBtZQmCEvWK1m%2B2nNcQVTy1lQFGIyvTRr8RSu0y0Q8rJ7OG6mExEjMG4Hq62bneLxMKys0KoGOp0Bimw6%2BHOO%2BkGWjg4YAzTWENvgoHqDAAzPsvSFyuAPDuz%2FxOIJ8K3KQvNxm58UbGhPGjhjgDn04TNnByEHw7BSEow6ibt4A%2Ba874bH1pk6CbQIOakZAwDDOcTo1iOPY09sf1nRZ2ym4%2BwESbjcDibZY3ztZJzpHOW7px7tvIVdXJfx7P3hj4rjn9CdqvttXt4YJqRR01g6Ta97Lrl62A%3D%3D&X-Amz-Signature=99121a9bbf52a9dc0c73a44f0b3822b26a5071e54f0dfac8d74906feee14597b
p37
sg28
Vtk-framework-desktopserver_v1.6.1.zip
p38
sg30
Vapplication/zip
p39
sg31
Vupload
p40
sg13
VAttachment
p41
sg15
I30076
sss.