(dp0
Vsg_bundle_data
p1
(dp2
Vtype
p3
VCustomNonProjectEntity13
p4
sVid
p5
I1
sVsg_system_name
p6
Vtk-framework-widget
p7
sVsg_status_list
p8
Vhidden
p9
sVsg_deprecation_message
p10
NssVsg_version_data
p11
(dp12
Vtype
p13
VCustomNonProjectEntity09
p14
sVid
p15
I938
sVcode
p16
Vv0.2.8
p17
sVsg_status_list
p18
Vprod
p19
sVdescription
p20
VAdds Python 3 support.
p21
sVtags
p22
(lp23
sVsg_detailed_release_notes
p24
NsVsg_documentation
p25
NsVsg_payload
p26
(dp27
Vurl
p28
Vhttps://s3-proxy.shotgunstudio.com/d18c13bf0e59a9a82f18be518a1b6b508bcbd774/5bf12ffba81768a80e4c3fb738de8f60794b139b/tk-framework-widget_v0.2.8.zip?response-content-disposition=filename%3D%22tk-framework-widget_v0.2.8.zip%22&x-amz-meta-user-id=42&x-amz-meta-user-type=ApiUser&X-Amz-Algorithm=AWS4-HMAC-SHA256&X-Amz-Credential=ASIAYJG6Z4JIVL2JGO2Q%2F20231115%2Fus-west-2%2Fs3%2Faws4_request&X-Amz-Date=20231115T013632Z&X-Amz-SignedHeaders=host&X-Amz-Expires=900&X-Amz-Security-Token=IQoJb3JpZ2luX2VjECEaCXVzLWVhc3QtMSJHMEUCIQDteA2AzRfBxVhl3A3aTyyVFWo%2Bv6tOQNRPWQh5c6Mo9QIgG%2BqE8yM5UzSQQ%2BRAI0qZl28oe%2F5lL5xboHEO4AHfsiEqmAIIahAAGgw1Njk1NTA0MzA4MDEiDIqWis4%2BFpJTgIlGcir1AfNmVUE3c1ia3a8okANd%2BFByB%2FcoDsgW40Bd42X5ygavuqlMt9S5iBePAusdMXnNiSSMeXrcGPLt%2B2PfGs0um0Y2pdseBmTmWkIg67Un3OFxHDZ86qySlXj9qoYHXdH%2BpZT2hzFuzY0Rw5Igrpr2Vdq6AxCuf%2FVe%2F4EnU9dpjAeC2BfNwHuMXXy1aqNEmNbJFsJzUbXe4CeTmZ3lyBGbJbVYNAwqgw21segkoEHHBDK%2Bv1vxBgJURLVOjtIavtq0U9mhK7BMIjZkDqBW3Yw8npYaD24j8W8zaMm%2BipbDb3W%2FeS5sk9%2FRrbfPjeRHnc7tiMz96jQbML6x0KoGOp0BN%2FlIcwYnqO2rqbn0ru%2FEJlElYUiTl8PY6RBEl1zOo1yWk71aqwIBrvnU2Q4ndY7b1KsdJEoIlUV0KCL6KQG%2FI9sFZ7qApcWczGd6p6IzVBWyw4lC0mJKGv%2Bby4osX4axAEAkjGsM1QCXF8nci5AzCYHiVw58yLweXpk2B0UFUrL4THogCQCVkyGQMBUs0LiCf5lStnaobRjkzwa2Eg%3D%3D&X-Amz-Signature=aec3febd6d61bb50e210c351d969a963d1b5edcd8a6c4d1496828ca1f3445cd3
p29
sVname
p30
Vtk-framework-widget_v0.2.8.zip
p31
sVcontent_type
p32
Vapplication/zip
p33
sVlink_type
p34
Vupload
p35
sg13
VAttachment
p36
sg15
I21722
sss.