(dp0
Vsg_bundle_data
p1
(dp2
Vtype
p3
VCustomNonProjectEntity07
p4
sVid
p5
I81
sVsg_system_name
p6
Vtk-config-default2
p7
sVsg_status_list
p8
Vhidden
p9
sVsg_deprecation_message
p10
NssVsg_version_data
p11
(dp12
Vtype
p13
VCustomNonProjectEntity08
p14
sVid
p15
I2986
sVcode
p16
Vv1.6.0
p17
sVsg_status_list
p18
Vprod
p19
sVdescription
p20
V[No wiki release notes found]
p21
sVtags
p22
(lp23
sVsg_detailed_release_notes
p24
(dp25
Vurl
p26
Vhttps://community.shotgridsoftware.com/t/shotgrid-integration-1-6-release-notes/17759
p27
sVname
p28
Vv1.6.0
p29
sVcontent_type
p30
NsVlink_type
p31
Vweb
p32
sg13
VAttachment
p33
sg15
I30582
ssVsg_documentation
p34
NsVsg_payload
p35
(dp36
g26
Vhttps://s3-proxy.shotgunstudio.com/d18c13bf0e59a9a82f18be518a1b6b508bcbd774/4d2863bea08a0d0bf41c715991952db6a5b0df0e/tk-config-default2_v1.6.0.zip?response-content-disposition=filename%3D%22tk-config-default2_v1.6.0.zip%22&x-amz-meta-user-id=42&x-amz-meta-user-type=ApiUser&X-Amz-Algorithm=AWS4-HMAC-SHA256&X-Amz-Credential=ASIAYJG6Z4JIZSSK3PIJ%2F20231211%2Fus-west-2%2Fs3%2Faws4_request&X-Amz-Date=20231211T192558Z&X-Amz-SignedHeaders=host&X-Amz-Expires=900&X-Amz-Security-Token=IQoJb3JpZ2luX2VjEKT%2F%2F%2F%2F%2F%2F%2F%2F%2F%2FwEaCXVzLWVhc3QtMSJHMEUCIFVeXeIDQ07bour6PEGNOy03xKXmNOYVfovNtD4tkMg2AiEA8HLK4PaQpJn%2FFnNBxwXfBs09xNZwfTTdGTNnmOziC4UqmAIIHBAAGgw1Njk1NTA0MzA4MDEiDLnADZ%2FFAyA8CGT09Sr1ASDi48Ng2D74RWOG%2FyZYJTTTrQWDIOi164aYjCtPlLYexg0wE%2Fy%2BTeQAPDG4xHnTalJ6q2tw9Kvn4g9KmTKGjc54IpzcTvJbZg1AtHI40a84or37WlN9VQOjRc%2BAndEopurlXwVyC6TZSf9RrL9kIJvDdNrtN4O8sULsGhbX56SJ1xxMacgkwvKjama6ifv4O4Cb8Wdh4DCPItX3HKzqcA3uJem94%2B3EEv8wb1nV8DJvvuMwPERh2KenATG6TQPAz8x7%2BJ%2Br26GY3r48mV7pl9O9HhocR5mMxYEIomacfD0MiDjKLh75%2BpCTBK5ns7THnjee4MUUMLW%2B3asGOp0Bon3l9i%2BqffoW2w8mbLj%2FbZtqdgt6J7JTkNE1FdhAz3jRIDVbH319Vc2Qy1sL2wMrKwZSfy5Rb7UnaAoIHZL1SZg0htRzaQS7007n%2FCOoeoShH13d7NFi63OyPz7p0HDo%2FXu077%2FS%2B%2BB1TxdRxBCa2dryeBNL67zXPKfCqTrjqOtWc2U90WKZAdhpRd53bvF10nACoNc%2FYeprhmgd9g%3D%3D&X-Amz-Signature=e4ea205c79c3813c5a5e23ec292dd9190eefdcb1b87cdb5bb64bd6182ae950d6
p37
sg28
Vtk-config-default2_v1.6.0.zip
p38
sg30
Vapplication/zip
p39
sg31
Vupload
p40
sg13
VAttachment
p41
sg15
I30576
sss.