(dp0
Vsg_bundle_data
p1
(dp2
Vtype
p3
VCustomNonProjectEntity13
p4
sVid
p5
I117
sVsg_system_name
p6
Vtk-framework-lmv
p7
sVsg_status_list
p8
Vdepl
p9
sVsg_deprecation_message
p10
NssVsg_version_data
p11
(dp12
Vtype
p13
VCustomNonProjectEntity09
p14
sVid
p15
I2302
sVcode
p16
Vv0.2.2
p17
sVsg_status_list
p18
Vprod
p19
sVdescription
p20
VUpdated brand icons.
p21
sVtags
p22
(lp23
sVsg_detailed_release_notes
p24
(dp25
Vurl
p26
Vhttps://community.shotgridsoftware.com/t/a-new-version-of-tk-framework-lmv-has-been-released/14121/4
p27
sVname
p28
Vv0.2.2
p29
sVcontent_type
p30
NsVlink_type
p31
Vweb
p32
sg13
VAttachment
p33
sg15
I27883
ssVsg_documentation
p34
NsVsg_payload
p35
(dp36
g26
Vhttps://s3-proxy.shotgunstudio.com/d18c13bf0e59a9a82f18be518a1b6b508bcbd774/d18e09fcd9b838956396fea30d13d48c2c71477b/tk-framework-lmv_v0.2.2.zip?response-content-disposition=filename%3D%22tk-framework-lmv_v0.2.2.zip%22&x-amz-meta-user-id=42&x-amz-meta-user-type=ApiUser&X-Amz-Algorithm=AWS4-HMAC-SHA256&X-Amz-Credential=ASIAYJG6Z4JI3MDY7ZHK%2F20231115%2Fus-west-2%2Fs3%2Faws4_request&X-Amz-Date=20231115T013741Z&X-Amz-SignedHeaders=host&X-Amz-Expires=900&X-Amz-Security-Token=IQoJb3JpZ2luX2VjECIaCXVzLWVhc3QtMSJHMEUCIQCN4s5JDKGCcBWYFdXSvk%2FD64TV%2FyTXjFt5hcp7EknYBgIgIHCk%2FiAmHeWbdI2CirPXhvvhjlV8AAyf4MaJNUEyueoqmAIIahAAGgw1Njk1NTA0MzA4MDEiDOuJ2XG5AxNYh59CASr1AX0jD2nnGv1cdMnb4IlypJETvcCK6dBvmRGDbOuztO3YAVbu38g9mehZLUjlQpt1zTIuUgwH64wtIWEGViJfPkbr7rISYeIUO3qhzeDA27SgRZdNynSm%2BMsvq9%2FUwDJvaV%2FGKlz5kFU1sepGush8ofSPMmT8XuX5%2BfMUrcqX61CDuaLhbtCtqFTZymi8xkO9rLNEl7I%2FAmjklDT%2BmAqv%2BjTgopXvQFDvs5536zIMZJ756EH%2Bi202K1824l1%2BrazGmuzksr5vg3bfMuaL89KRVxHnMPCOyrHDXKFb%2FH4ggQHvCU%2B5UzMLyjbmYMX7Hx4QCVcO1wMTMLq00KoGOp0BjRMx%2FEX4iS4uIqPwxuFY3Sh23%2BGoOeUvjMZJBw3Vp6MiFQv1wB18M4ViHgaYjyZjae5LKWKEbli4qQ8d%2BAr54A9ZtpoIHYlgfC16wEnBRMsIwgn7LzROVhgRz4vEm6azkfu%2BHzg1ibbNNg7yVigZ0oU7W42qbBIMXarqHDCxa%2F7kTTLYrskVp0KxAa6daaB1Uhmvm6gbaG0voBY1qA%3D%3D&X-Amz-Signature=83be6851af1a132e9e806bfe3dd69bf790f647ccfdec36170cf4a98623fd39d6
p37
sg28
Vtk-framework-lmv_v0.2.2.zip
p38
sg30
Vapplication/zip
p39
sg31
Vupload
p40
sg13
VAttachment
p41
sg15
I27822
sss.