(dp0
Vsg_bundle_data
p1
(dp2
Vtype
p3
VCustomNonProjectEntity13
p4
sVid
p5
I84
sVsg_system_name
p6
Vtk-framework-aliastranslations
p7
sVsg_status_list
p8
Vdepl
p9
sVsg_deprecation_message
p10
NssVsg_version_data
p11
(dp12
Vtype
p13
VCustomNonProjectEntity09
p14
sVid
p15
I2757
sVcode
p16
Vv0.2.3
p17
sVsg_status_list
p18
Vprod
p19
sVdescription
p20
V* Enable CATPart Publish using tk-multi-bg-publish
p21
sVtags
p22
(lp23
sVsg_detailed_release_notes
p24
(dp25
Vurl
p26
Vhttps://community.shotgridsoftware.com/t/a-new-version-of-tk-framework-aliastranslations-has-been-released/14163/5
p27
sVname
p28
Vv0.2.3
p29
sVcontent_type
p30
NsVlink_type
p31
Vweb
p32
sg13
VAttachment
p33
sg15
I29678
ssVsg_documentation
p34
NsVsg_payload
p35
(dp36
g26
Vhttps://s3-proxy.shotgunstudio.com/d18c13bf0e59a9a82f18be518a1b6b508bcbd774/241f1c7c13f58a38a899fe3d1262f01019ba14e7/tk-framework-aliastranslations_v0.2.3.zip?response-content-disposition=filename%3D%22tk-framework-aliastranslations_v0.2.3.zip%22&x-amz-meta-user-id=42&x-amz-meta-user-type=ApiUser&X-Amz-Algorithm=AWS4-HMAC-SHA256&X-Amz-Credential=ASIAYJG6Z4JIZT6E3RHO%2F20231115%2Fus-west-2%2Fs3%2Faws4_request&X-Amz-Date=20231115T013557Z&X-Amz-SignedHeaders=host&X-Amz-Expires=900&X-Amz-Security-Token=IQoJb3JpZ2luX2VjECEaCXVzLWVhc3QtMSJHMEUCIQCTk8AAV%2BJ12afA%2FsN4qjRHqi6asq4mmYNMg1WoL9lwLwIgEDI9JFuR%2FaSfzxGU21phG7rWpYem1YhA8dCJa%2BNcGnMqmAIIahAAGgw1Njk1NTA0MzA4MDEiDPRdQlctqN%2Brm3sDqSr1AUf4z3spiKDt1A02NOYaKl8TmuhCA3QY4XRTnXonOkIrLIJjsVViNiznW20la4f7dSWAjjp4XK6WOow%2FAAhCuq0uz1yHYl3G2wGnsSsJyIWv0mjNgxJKhVtTp21y3OU6gd0gYlah7UQ0JFoS8soQsWeIFNFAs%2BF6bYrxnSUrcvD8oYBub11ea7TsTpyR3H2Yn7lyjQ3XTcj5Q7AttugIwZzB2B5PQmlkdCPAq%2BGiq8fDw%2F4%2B1%2BxMyB9t60HyUegqlj76LwwiBtZQmCEvWK1m%2B2nNcQVTy1lQFGIyvTRr8RSu0y0Q8rJ7OG6mExEjMG4Hq62bneLxMKys0KoGOp0Bimw6%2BHOO%2BkGWjg4YAzTWENvgoHqDAAzPsvSFyuAPDuz%2FxOIJ8K3KQvNxm58UbGhPGjhjgDn04TNnByEHw7BSEow6ibt4A%2Ba874bH1pk6CbQIOakZAwDDOcTo1iOPY09sf1nRZ2ym4%2BwESbjcDibZY3ztZJzpHOW7px7tvIVdXJfx7P3hj4rjn9CdqvttXt4YJqRR01g6Ta97Lrl62A%3D%3D&X-Amz-Signature=92467d128388c2e4eee304a2470448f4c2b9ae4363a9f6f708a5ef613049fe1e
p37
sg28
Vtk-framework-aliastranslations_v0.2.3.zip
p38
sg30
Vapplication/zip
p39
sg31
Vupload
p40
sg13
VAttachment
p41
sg15
I29677
sss.